; Function Attrs: nounwind uwtable
define ptr @l_Lean_Elab_Structural_Positions_mapMwith___at___private_Lean_Elab_PreDefinition_Structural_BRecOn_0__Lean_Elab_Structural_withBelowDict___spec__4(ptr noundef %0, ptr noundef %1, ptr noundef %2, ptr noundef %3, ptr noundef readonly captures(none) %4, ptr noundef %5, ptr noundef %6, ptr noundef %7, ptr noundef %8, ptr noundef %9) local_unnamed_addr #0 {
lean_dec.exit52:
  %10 = getelementptr i8, ptr %2, i64 8
  %.val73 = load i64, ptr %10, align 8, !tbaa !12
  %11 = getelementptr i8, ptr %3, i64 8
  %.val72 = load i64, ptr %11, align 8, !tbaa !12
  %.unshifted = xor i64 %.val72, %.val73
  %.mask = and i64 %.unshifted, 9223372036854775807
  %.not = icmp eq i64 %.mask, 0
  br i1 %.not, label %35, label %12

12:                                               ; preds = %lean_dec.exit52
  %13 = ptrtoint ptr %1 to i64
  %14 = and i64 %13, 1
  %.not78 = icmp eq i64 %14, 0
  br i1 %.not78, label %15, label %lean_dec.exit51

15:                                               ; preds = %12
  %16 = load i32, ptr %1, align 4, !tbaa !8
  %17 = icmp sgt i32 %16, 1
  br i1 %17, label %18, label %20, !prof !11

18:                                               ; preds = %15
  %19 = add nsw i32 %16, -1
  store i32 %19, ptr %1, align 4, !tbaa !8
  br label %lean_dec.exit51

20:                                               ; preds = %15
  %.not.i56 = icmp eq i32 %16, 0
  br i1 %.not.i56, label %lean_dec.exit51, label %21

21:                                               ; preds = %20
  tail call void @lean_dec_ref_cold(ptr noundef nonnull %1) #6
  br label %lean_dec.exit51

lean_dec.exit51:                                  ; preds = %21, %20, %18, %12
  %22 = ptrtoint ptr %0 to i64
  %23 = and i64 %22, 1
  %.not79 = icmp eq i64 %23, 0
  br i1 %.not79, label %24, label %lean_dec.exit50

24:                                               ; preds = %lean_dec.exit51
  %25 = load i32, ptr %0, align 4, !tbaa !8
  %26 = icmp sgt i32 %25, 1
  br i1 %26, label %27, label %29, !prof !11

27:                                               ; preds = %24
  %28 = add nsw i32 %25, -1
  store i32 %28, ptr %0, align 4, !tbaa !8
  br label %lean_dec.exit50

29:                                               ; preds = %24
  %.not.i58 = icmp eq i32 %25, 0
  br i1 %.not.i58, label %lean_dec.exit50, label %30

30:                                               ; preds = %29
  tail call void @lean_dec_ref_cold(ptr noundef nonnull %0) #6
  br label %lean_dec.exit50

lean_dec.exit50:                                  ; preds = %30, %29, %27, %lean_dec.exit51
  %31 = load ptr, ptr @l_Lean_Elab_Structural_Positions_mapMwith___at___private_Lean_Elab_PreDefinition_Structural_BRecOn_0__Lean_Elab_Structural_withBelowDict___spec__4___closed__6, align 8, !tbaa !4
  %32 = load ptr, ptr @l_panic___at___private_Lean_Elab_PreDefinition_Structural_BRecOn_0__Lean_Elab_Structural_withBelowDict___spec__5___closed__2, align 8, !tbaa !4
  %33 = tail call ptr @lean_panic_fn(ptr noundef %32, ptr noundef %31) #6
  %34 = tail call ptr @lean_apply_5(ptr noundef %33, ptr noundef %5, ptr noundef %6, ptr noundef %7, ptr noundef %8, ptr noundef %9) #6
  br label %79

35:                                               ; preds = %lean_dec.exit52
  %36 = tail call ptr @l_Lean_Elab_Structural_Positions_numIndices(ptr noundef nonnull %2) #6
  %37 = getelementptr i8, ptr %4, i64 8
  %.val71 = load i64, ptr %37, align 8, !tbaa !12
  %38 = shl i64 %.val71, 1
  %39 = or disjoint i64 %38, 1
  %40 = inttoptr i64 %39 to ptr
  %41 = ptrtoint ptr %36 to i64
  %42 = and i64 %41, 1
  %.not75 = icmp eq i64 %42, 0
  br i1 %.not75, label %44, label %lean_dec.exit49.thread, !prof !17

lean_dec.exit49.thread:                           ; preds = %35
  %43 = icmp eq ptr %36, %40
  br i1 %43, label %75, label %52

44:                                               ; preds = %35
  %45 = tail call zeroext i1 @lean_nat_big_eq(ptr noundef %36, ptr noundef nonnull %40) #6
  %46 = load i32, ptr %36, align 4, !tbaa !8
  %47 = icmp sgt i32 %46, 1
  br i1 %47, label %48, label %50, !prof !11

48:                                               ; preds = %44
  %49 = add nsw i32 %46, -1
  store i32 %49, ptr %36, align 4, !tbaa !8
  br i1 %45, label %75, label %52

50:                                               ; preds = %44
  %.not.i62 = icmp eq i32 %46, 0
  br i1 %.not.i62, label %lean_dec.exit48, label %51

51:                                               ; preds = %50
  tail call void @lean_dec_ref_cold(ptr noundef nonnull %36) #6
  br i1 %45, label %75, label %52

lean_dec.exit48:                                  ; preds = %50
  br i1 %45, label %75, label %52

52:                                               ; preds = %51, %48, %lean_dec.exit49.thread, %lean_dec.exit48
  %53 = ptrtoint ptr %1 to i64
  %54 = and i64 %53, 1
  %.not76 = icmp eq i64 %54, 0
  br i1 %.not76, label %55, label %lean_dec.exit47

55:                                               ; preds = %52
  %56 = load i32, ptr %1, align 4, !tbaa !8
  %57 = icmp sgt i32 %56, 1
  br i1 %57, label %58, label %60, !prof !11

58:                                               ; preds = %55
  %59 = add nsw i32 %56, -1
  store i32 %59, ptr %1, align 4, !tbaa !8
  br label %lean_dec.exit47

60:                                               ; preds = %55
  %.not.i64 = icmp eq i32 %56, 0
  br i1 %.not.i64, label %lean_dec.exit47, label %61

61:                                               ; preds = %60
  tail call void @lean_dec_ref_cold(ptr noundef nonnull %1) #6
  br label %lean_dec.exit47

lean_dec.exit47:                                  ; preds = %61, %60, %58, %52
  %62 = ptrtoint ptr %0 to i64
  %63 = and i64 %62, 1
  %.not77 = icmp eq i64 %63, 0
  br i1 %.not77, label %64, label %lean_dec.exit

64:                                               ; preds = %lean_dec.exit47
  %65 = load i32, ptr %0, align 4, !tbaa !8
  %66 = icmp sgt i32 %65, 1
  br i1 %66, label %67, label %69, !prof !11

67:                                               ; preds = %64
  %68 = add nsw i32 %65, -1
  store i32 %68, ptr %0, align 4, !tbaa !8
  br label %lean_dec.exit

69:                                               ; preds = %64
  %.not.i66 = icmp eq i32 %65, 0
  br i1 %.not.i66, label %lean_dec.exit, label %70

70:                                               ; preds = %69
  tail call void @lean_dec_ref_cold(ptr noundef nonnull %0) #6
  br label %lean_dec.exit

lean_dec.exit:                                    ; preds = %70, %69, %67, %lean_dec.exit47
  %71 = load ptr, ptr @l_Lean_Elab_Structural_Positions_mapMwith___at___private_Lean_Elab_PreDefinition_Structural_BRecOn_0__Lean_Elab_Structural_withBelowDict___spec__4___closed__9, align 8, !tbaa !4
  %72 = load ptr, ptr @l_panic___at___private_Lean_Elab_PreDefinition_Structural_BRecOn_0__Lean_Elab_Structural_withBelowDict___spec__5___closed__2, align 8, !tbaa !4
  %73 = tail call ptr @lean_panic_fn(ptr noundef %72, ptr noundef %71) #6
  %74 = tail call ptr @lean_apply_5(ptr noundef %73, ptr noundef %5, ptr noundef %6, ptr noundef %7, ptr noundef %8, ptr noundef %9) #6
  br label %79

75:                                               ; preds = %51, %48, %lean_dec.exit49.thread, %lean_dec.exit48
  %76 = tail call ptr @l_Array_zip___rarg(ptr noundef nonnull %3, ptr noundef nonnull %2) #6
  %77 = getelementptr i8, ptr %76, i64 8
  %.val = load i64, ptr %77, align 8, !tbaa !12
  %78 = tail call ptr @l_Array_mapMUnsafe_map___at___private_Lean_Elab_PreDefinition_Structural_BRecOn_0__Lean_Elab_Structural_withBelowDict___spec__7(ptr noundef %0, ptr noundef %1, ptr noundef nonnull %4, i64 noundef %.val, i64 noundef 0, ptr noundef %76, ptr noundef %5, ptr noundef %6, ptr noundef %7, ptr noundef %8, ptr noundef %9)
  br label %79

79:                                               ; preds = %lean_dec.exit, %75, %lean_dec.exit50
  %.0 = phi ptr [ %34, %lean_dec.exit50 ], [ %74, %lean_dec.exit ], [ %78, %75 ]
  ret ptr %.0
}